; Function Attrs: mustprogress uwtable
define void @_ZN7testing8internal13DeathTestImpl12GetErrorLogsB5cxx11Ev(ptr dead_on_unwind noalias writable sret(%"class.std::__cxx11::basic_string") align 8 %0, ptr nonnull readnone align 8 captures(none) %1) unnamed_addr #3 align 2 personality ptr @__gxx_personality_v0 {
  %3 = load ptr, ptr @_ZN7testing8internalL17g_captured_stderrE, align 8, !tbaa !191, !noalias !193
  tail call void @_ZN7testing8internal14CapturedStream17GetCapturedStringB5cxx11Ev(ptr dead_on_unwind writable sret(%"class.std::__cxx11::basic_string") align 8 %0, ptr noundef nonnull align 8 dereferenceable(40) %3)
  %4 = load ptr, ptr @_ZN7testing8internalL17g_captured_stderrE, align 8, !tbaa !191, !noalias !193
  %5 = icmp eq ptr %4, null
  br i1 %5, label %_ZN7testing8internal17GetCapturedStderrB5cxx11Ev.exit, label %6

6:                                                ; preds = %2
  %7 = getelementptr inbounds nuw i8, ptr %4, i64 8
  %8 = load ptr, ptr %7, align 8, !tbaa !22
  %9 = tail call i32 @remove(ptr noundef %8) #57
  %10 = load ptr, ptr %7, align 8, !tbaa !22
  %11 = getelementptr inbounds nuw i8, ptr %4, i64 24
  %12 = icmp eq ptr %10, %11
  br i1 %12, label %_ZNKSt7__cxx1112basic_stringIcSt11char_traitsIcESaIcEE11_M_is_localEv.exit.thread.i.i.i.i.i, label %_ZNKSt7__cxx1112basic_stringIcSt11char_traitsIcESaIcEE11_M_is_localEv.exit.i.i.i.i.i

_ZNKSt7__cxx1112basic_stringIcSt11char_traitsIcESaIcEE11_M_is_localEv.exit.thread.i.i.i.i.i: ; preds = %6
  %13 = getelementptr inbounds nuw i8, ptr %4, i64 16
  %14 = load i64, ptr %13, align 8, !tbaa !25
  %15 = icmp ult i64 %14, 16
  tail call void @llvm.assume(i1 %15)
  br label %_ZN7testing8internal14CapturedStreamD2Ev.exit.i.i

_ZNKSt7__cxx1112basic_stringIcSt11char_traitsIcESaIcEE11_M_is_localEv.exit.i.i.i.i.i: ; preds = %6
  %16 = load i64, ptr %11, align 8, !tbaa !27
  %17 = add i64 %16, 1
  tail call void @_ZdlPvm(ptr noundef %10, i64 noundef %17) #58
  br label %_ZN7testing8internal14CapturedStreamD2Ev.exit.i.i

_ZN7testing8internal14CapturedStreamD2Ev.exit.i.i: ; preds = %_ZNKSt7__cxx1112basic_stringIcSt11char_traitsIcESaIcEE11_M_is_localEv.exit.i.i.i.i.i, %_ZNKSt7__cxx1112basic_stringIcSt11char_traitsIcESaIcEE11_M_is_localEv.exit.thread.i.i.i.i.i
  tail call void @_ZdlPvm(ptr noundef nonnull %4, i64 noundef 40) #58
  br label %_ZN7testing8internal17GetCapturedStderrB5cxx11Ev.exit

_ZN7testing8internal17GetCapturedStderrB5cxx11Ev.exit: ; preds = %2, %_ZN7testing8internal14CapturedStreamD2Ev.exit.i.i
  store ptr null, ptr @_ZN7testing8internalL17g_captured_stderrE, align 8, !tbaa !191, !noalias !193
  ret void
}